target datalayout = "e-m:e-p270:32:32-p271:32:32-p272:64:64-i64:64-i128:128-f80:128-n8:16:32:64-S128"
target triple = "x86_64-pc-linux-gnu"

@proto_register_usb_com.usb_com_ett = internal global [5 x ptr] [ptr @ett_usb_com, ptr @ett_usb_com_capabilities, ptr @ett_usb_com_bitmap, ptr @ett_usb_com_descriptor_ecm_eth_stats, ptr @ett_usb_com_descriptor_ecm_nb_mc_filters], align 16
@controlling_ifaces = internal global ptr null, align 8
@.str.181 = private unnamed_addr constant [35 x i8] c"USB Communications and CDC Control\00", align 1
@.str.182 = private unnamed_addr constant [7 x i8] c"USBCOM\00", align 1
@.str.183 = private unnamed_addr constant [7 x i8] c"usbcom\00", align 1
@proto_usb_com = internal global i32 0, align 4
@.str.184 = private unnamed_addr constant [18 x i8] c"usbcom.descriptor\00", align 1
@usb_com_descriptor_handle = internal global ptr null, align 8
@.str.185 = private unnamed_addr constant [15 x i8] c"usbcom.control\00", align 1
@usb_com_control_handle = internal global ptr null, align 8
@.str.186 = private unnamed_addr constant [12 x i8] c"usbcom.bulk\00", align 1
@usb_com_bulk_handle = internal global ptr null, align 8
@.str.187 = private unnamed_addr constant [17 x i8] c"usbcom.interrupt\00", align 1
@usb_com_interrupt_handle = internal global ptr null, align 8
@.str.188 = private unnamed_addr constant [16 x i8] c"cdc_data_follow\00", align 1
@cdc_data_follow_tap = internal global i32 0, align 4

; Function Attrs: null_pointer_is_valid sspstrong uwtable
define hidden void @proto_register_usb_com() #1 {
  %1 = alloca ptr, align 8
  call void @llvm.lifetime.start.p0(i64 8, ptr %1) #13
  %2 = call ptr @wmem_epan_scope()
  %3 = call ptr @wmem_file_scope()
  %4 = call noalias ptr @wmem_tree_new_autoreset(ptr noundef %2, ptr noundef %3)
  store ptr %4, ptr @controlling_ifaces, align 8
  %5 = call i32 @proto_register_protocol(ptr noundef @.str.181, ptr noundef @.str.182, ptr noundef @.str.183)
  store i32 %5, ptr @proto_usb_com, align 4
  %6 = load i32, ptr @proto_usb_com, align 4
  call void @proto_register_field_array(i32 noundef %6, ptr noundef @proto_register_usb_com.hf, i32 noundef 99)
  call void @proto_register_subtree_array(ptr noundef @proto_register_usb_com.usb_com_ett, i32 noundef 5)
  %7 = load i32, ptr @proto_usb_com, align 4
  %8 = call ptr @register_dissector(ptr noundef @.str.184, ptr noundef @dissect_usb_com_descriptor, i32 noundef %7)
  store ptr %8, ptr @usb_com_descriptor_handle, align 8
  %9 = load i32, ptr @proto_usb_com, align 4
  %10 = call ptr @register_dissector(ptr noundef @.str.185, ptr noundef @dissect_usb_com_control, i32 noundef %9)
  store ptr %10, ptr @usb_com_control_handle, align 8
  %11 = load i32, ptr @proto_usb_com, align 4
  %12 = call ptr @register_dissector(ptr noundef @.str.186, ptr noundef @dissect_usb_com_bulk, i32 noundef %11)
  store ptr %12, ptr @usb_com_bulk_handle, align 8
  %13 = load i32, ptr @proto_usb_com, align 4
  %14 = call ptr @register_dissector(ptr noundef @.str.187, ptr noundef @dissect_usb_com_interrupt, i32 noundef %13)
  store ptr %14, ptr @usb_com_interrupt_handle, align 8
  %15 = load i32, ptr @proto_usb_com, align 4
  %16 = call ptr @expert_register_protocol(i32 noundef %15)
  store ptr %16, ptr %1, align 8
  %17 = load ptr, ptr %1, align 8
  call void @expert_register_field_array(ptr noundef %17, ptr noundef @proto_register_usb_com.ei, i32 noundef 1)
  call void @register_cleanup_routine(ptr noundef @usb_com_cleanup_data)
  %18 = call i32 @register_tap(ptr noundef @.str.188)
  store i32 %18, ptr @cdc_data_follow_tap, align 4
  %19 = load i32, ptr @proto_usb_com, align 4
  call void @register_follow_stream(i32 noundef %19, ptr noundef @.str.188, ptr noundef @cdc_data_follow_conv_filter, ptr noundef @cdc_data_follow_index_filter, ptr noundef @cdc_data_follow_address_filter, ptr noundef @cdc_data_port_to_display, ptr noundef @follow_cdc_data_tap_listener, ptr noundef @get_cdc_data_stream_count, ptr noundef null)
  call void @llvm.lifetime.end.p0(i64 8, ptr %1) #13
  ret void
}