; Function Attrs: null_pointer_is_valid sspstrong uwtable
define hidden void @proto_register_usb_com() local_unnamed_addr #1 {
  %1 = tail call ptr @wmem_epan_scope()
  %2 = tail call ptr @wmem_file_scope()
  %3 = tail call noalias ptr @wmem_tree_new_autoreset(ptr noundef %1, ptr noundef %2)
  store ptr %3, ptr @controlling_ifaces, align 8
  %4 = tail call i32 @proto_register_protocol(ptr noundef nonnull @.str.181, ptr noundef nonnull @.str.182, ptr noundef nonnull @.str.183)
  store i32 %4, ptr @proto_usb_com, align 4
  tail call void @proto_register_field_array(i32 noundef %4, ptr noundef nonnull @proto_register_usb_com.hf, i32 noundef 99)
  tail call void @proto_register_subtree_array(ptr noundef nonnull @proto_register_usb_com.usb_com_ett, i32 noundef 5)
  %5 = load i32, ptr @proto_usb_com, align 4
  %6 = tail call ptr @register_dissector(ptr noundef nonnull @.str.184, ptr noundef nonnull @dissect_usb_com_descriptor, i32 noundef %5)
  store ptr %6, ptr @usb_com_descriptor_handle, align 8
  %7 = load i32, ptr @proto_usb_com, align 4
  %8 = tail call ptr @register_dissector(ptr noundef nonnull @.str.185, ptr noundef nonnull @dissect_usb_com_control, i32 noundef %7)
  store ptr %8, ptr @usb_com_control_handle, align 8
  %9 = load i32, ptr @proto_usb_com, align 4
  %10 = tail call ptr @register_dissector(ptr noundef nonnull @.str.186, ptr noundef nonnull @dissect_usb_com_bulk, i32 noundef %9)
  store ptr %10, ptr @usb_com_bulk_handle, align 8
  %11 = load i32, ptr @proto_usb_com, align 4
  %12 = tail call ptr @register_dissector(ptr noundef nonnull @.str.187, ptr noundef nonnull @dissect_usb_com_interrupt, i32 noundef %11)
  store ptr %12, ptr @usb_com_interrupt_handle, align 8
  %13 = load i32, ptr @proto_usb_com, align 4
  %14 = tail call ptr @expert_register_protocol(i32 noundef %13)
  tail call void @expert_register_field_array(ptr noundef %14, ptr noundef nonnull @proto_register_usb_com.ei, i32 noundef 1)
  tail call void @register_cleanup_routine(ptr noundef nonnull @usb_com_cleanup_data)
  %15 = tail call i32 @register_tap(ptr noundef nonnull @.str.188)
  store i32 %15, ptr @cdc_data_follow_tap, align 4
  %16 = load i32, ptr @proto_usb_com, align 4
  tail call void @register_follow_stream(i32 noundef %16, ptr noundef nonnull @.str.188, ptr noundef nonnull @cdc_data_follow_conv_filter, ptr noundef nonnull @cdc_data_follow_index_filter, ptr noundef nonnull @cdc_data_follow_address_filter, ptr noundef nonnull @cdc_data_port_to_display, ptr noundef nonnull @follow_cdc_data_tap_listener, ptr noundef nonnull @get_cdc_data_stream_count, ptr noundef null)
  ret void
}